target datalayout = "e-m:e-p270:32:32-p271:32:32-p272:64:64-i64:64-i128:128-f80:128-n8:16:32:64-S128"
target triple = "x86_64-unknown-linux-gnu"

%"struct.absl::cord_internal::CordRep" = type { i64, %"class.absl::cord_internal::RefcountAndFlags", i8, [3 x i8] }
%"class.absl::cord_internal::RefcountAndFlags" = type { %"struct.std::atomic.15" }
%"struct.std::atomic.15" = type { %"struct.std::__atomic_base.16" }
%"struct.std::__atomic_base.16" = type { i32 }
%"class.std::basic_string_view" = type { i64, ptr }
%"struct.absl::cord_internal::CordRepExternal" = type { %"struct.absl::cord_internal::CordRep", ptr, ptr }

; Function Attrs: mustprogress nounwind uwtable
define internal void @"_ZZN4absl13cord_internal12_GLOBAL__N_18ExternalEmENK3$_0clESt17basic_string_viewIcSt11char_traitsIcEE"(ptr noundef nonnull align 1 dereferenceable(1) %this, i64 %.coerce0, ptr %.coerce1) #7 align 2 {
entry:
  %0 = alloca %"class.std::basic_string_view", align 8
  %this.addr = alloca ptr, align 8
  %1 = getelementptr inbounds { i64, ptr }, ptr %0, i32 0, i32 0
  store i64 %.coerce0, ptr %1, align 8
  %2 = getelementptr inbounds { i64, ptr }, ptr %0, i32 0, i32 1
  store ptr %.coerce1, ptr %2, align 8
  store ptr %this, ptr %this.addr, align 8
  ret void
}

; Function Attrs: mustprogress uwtable
define internal void @"_ZSt13__invoke_implIvZN4absl13cord_internal12_GLOBAL__N_18ExternalEmE3$_0JRSt17basic_string_viewIcSt11char_traitsIcEEEET_St14__invoke_otherOT0_DpOT1_"(ptr noundef nonnull align 1 dereferenceable(1) %__f, ptr noundef nonnull align 8 dereferenceable(16) %__args) #4 {
entry:
  %__f.addr = alloca ptr, align 8
  %__args.addr = alloca ptr, align 8
  %agg.tmp = alloca %"class.std::basic_string_view", align 8
  store ptr %__f, ptr %__f.addr, align 8
  store ptr %__args, ptr %__args.addr, align 8
  %0 = load ptr, ptr %__f.addr, align 8
  %1 = load ptr, ptr %__args.addr, align 8
  call void @llvm.memcpy.p0.p0.i64(ptr align 8 %agg.tmp, ptr align 8 %1, i64 16, i1 false)
  %2 = getelementptr inbounds { i64, ptr }, ptr %agg.tmp, i32 0, i32 0
  %3 = load i64, ptr %2, align 8
  %4 = getelementptr inbounds { i64, ptr }, ptr %agg.tmp, i32 0, i32 1
  %5 = load ptr, ptr %4, align 8
  call void @"_ZZN4absl13cord_internal12_GLOBAL__N_18ExternalEmENK3$_0clESt17basic_string_viewIcSt11char_traitsIcEE"(ptr noundef nonnull align 1 dereferenceable(1) %0, i64 %3, ptr %5)
  ret void
}

; Function Attrs: mustprogress uwtable
define internal void @"_ZSt8__invokeIZN4absl13cord_internal12_GLOBAL__N_18ExternalEmE3$_0JRSt17basic_string_viewIcSt11char_traitsIcEEEENSt15__invoke_resultIT_JDpT0_EE4typeEOSA_DpOSB_"(ptr noundef nonnull align 1 dereferenceable(1) %__fn, ptr noundef nonnull align 8 dereferenceable(16) %__args) #4 {
entry:
  %__fn.addr = alloca ptr, align 8
  %__args.addr = alloca ptr, align 8
  store ptr %__fn, ptr %__fn.addr, align 8
  store ptr %__args, ptr %__args.addr, align 8
  %0 = load ptr, ptr %__fn.addr, align 8
  %1 = load ptr, ptr %__args.addr, align 8
  call void @"_ZSt13__invoke_implIvZN4absl13cord_internal12_GLOBAL__N_18ExternalEmE3$_0JRSt17basic_string_viewIcSt11char_traitsIcEEEET_St14__invoke_otherOT0_DpOT1_"(ptr noundef nonnull align 1 dereferenceable(1) %0, ptr noundef nonnull align 8 dereferenceable(16) %1)
  ret void
}

; Function Attrs: mustprogress uwtable
define internal void @"_ZSt6invokeIZN4absl13cord_internal12_GLOBAL__N_18ExternalEmE3$_0JRSt17basic_string_viewIcSt11char_traitsIcEEEENSt13invoke_resultIT_JDpT0_EE4typeEOSA_DpOSB_"(ptr noundef nonnull align 1 dereferenceable(1) %__fn, ptr noundef nonnull align 8 dereferenceable(16) %__args) #4 {
entry:
  %__fn.addr = alloca ptr, align 8
  %__args.addr = alloca ptr, align 8
  store ptr %__fn, ptr %__fn.addr, align 8
  store ptr %__args, ptr %__args.addr, align 8
  %0 = load ptr, ptr %__fn.addr, align 8
  %1 = load ptr, ptr %__args.addr, align 8
  call void @"_ZSt8__invokeIZN4absl13cord_internal12_GLOBAL__N_18ExternalEmE3$_0JRSt17basic_string_viewIcSt11char_traitsIcEEEENSt15__invoke_resultIT_JDpT0_EE4typeEOSA_DpOSB_"(ptr noundef nonnull align 1 dereferenceable(1) %0, ptr noundef nonnull align 8 dereferenceable(16) %1)
  ret void
}

; Function Attrs: mustprogress nounwind uwtable
define internal noundef nonnull align 1 dereferenceable(1) ptr @"_ZNR4absl18container_internal25internal_compressed_tuple7StorageIZNS_13cord_internal12_GLOBAL__N_18ExternalEmE3$_0Lm0ELb1EE3getEv"(ptr noundef nonnull align 1 dereferenceable(1) %this) #7 align 2 {
entry:
  %this.addr = alloca ptr, align 8
  store ptr %this, ptr %this.addr, align 8
  %this1 = load ptr, ptr %this.addr, align 8
  ret ptr %this1
}

; Function Attrs: noreturn nounwind uwtable
define linkonce_odr hidden void @__clang_call_terminate(ptr noundef %0) #10 comdat {
  %2 = call ptr @__cxa_begin_catch(ptr %0) #3
  call void @_ZSt9terminatev() #18
  unreachable
}

; Function Attrs: mustprogress uwtable
define internal void @"_ZN4absl13cord_internal14InvokeReleaserIZNS0_12_GLOBAL__N_18ExternalEmE3$_0vEEvNS0_5Rank0EOT_St17basic_string_viewIcSt11char_traitsIcEE"(ptr noundef nonnull align 1 dereferenceable(1) %releaser, i64 %data.coerce0, ptr %data.coerce1) #4 {
entry:
  %data = alloca %"class.std::basic_string_view", align 8
  %releaser.addr = alloca ptr, align 8
  %0 = getelementptr inbounds { i64, ptr }, ptr %data, i32 0, i32 0
  store i64 %data.coerce0, ptr %0, align 8
  %1 = getelementptr inbounds { i64, ptr }, ptr %data, i32 0, i32 1
  store ptr %data.coerce1, ptr %1, align 8
  store ptr %releaser, ptr %releaser.addr, align 8
  %2 = load ptr, ptr %releaser.addr, align 8
  call void @"_ZSt6invokeIZN4absl13cord_internal12_GLOBAL__N_18ExternalEmE3$_0JRSt17basic_string_viewIcSt11char_traitsIcEEEENSt13invoke_resultIT_JDpT0_EE4typeEOSA_DpOSB_"(ptr noundef nonnull align 1 dereferenceable(1) %2, ptr noundef nonnull align 8 dereferenceable(16) %data)
  ret void
}

; Function Attrs: mustprogress nounwind uwtable
define linkonce_odr dso_local void @_ZNSt17basic_string_viewIcSt11char_traitsIcEEC2EPKcm(ptr noundef nonnull align 8 dereferenceable(16) %this, ptr noundef %__str, i64 noundef %__len) unnamed_addr #7 comdat align 2 {
entry:
  %this.addr = alloca ptr, align 8
  %__str.addr = alloca ptr, align 8
  %__len.addr = alloca i64, align 8
  store ptr %this, ptr %this.addr, align 8
  store ptr %__str, ptr %__str.addr, align 8
  store i64 %__len, ptr %__len.addr, align 8
  %this1 = load ptr, ptr %this.addr, align 8
  %_M_len = getelementptr inbounds %"class.std::basic_string_view", ptr %this1, i32 0, i32 0
  %0 = load i64, ptr %__len.addr, align 8
  store i64 %0, ptr %_M_len, align 8
  %_M_str = getelementptr inbounds %"class.std::basic_string_view", ptr %this1, i32 0, i32 1
  %1 = load ptr, ptr %__str.addr, align 8
  store ptr %1, ptr %_M_str, align 8
  ret void
}

; Function Attrs: mustprogress uwtable
define internal noundef nonnull align 1 dereferenceable(1) ptr @"_ZNR4absl18container_internal15CompressedTupleIJZNS_13cord_internal12_GLOBAL__N_18ExternalEmE3$_0EE3getILi0EEERNS0_25internal_compressed_tuple4ElemIS5_XT_EE4typeEv"(ptr noundef nonnull align 1 dereferenceable(1) %this) #4 align 2 {
entry:
  %this.addr = alloca ptr, align 8
  store ptr %this, ptr %this.addr, align 8
  %this1 = load ptr, ptr %this.addr, align 8
  %call = call noundef nonnull align 1 dereferenceable(1) ptr @"_ZNR4absl18container_internal25internal_compressed_tuple7StorageIZNS_13cord_internal12_GLOBAL__N_18ExternalEmE3$_0Lm0ELb1EE3getEv"(ptr noundef nonnull align 1 dereferenceable(1) %this1)
  ret ptr %call
}

; Function Attrs: mustprogress nounwind uwtable
define internal void @"_ZN4absl13cord_internal19CordRepExternalImplIZNS0_12_GLOBAL__N_18ExternalEmE3$_0ED2Ev"(ptr noundef nonnull align 8 dereferenceable(32) %this) unnamed_addr #7 align 2 personality ptr @__gxx_personality_v0 {
entry:
  %this.addr = alloca ptr, align 8
  %agg.tmp2 = alloca %"class.std::basic_string_view", align 8
  store ptr %this, ptr %this.addr, align 8
  %this1 = load ptr, ptr %this.addr, align 8
  %call = invoke noundef nonnull align 1 dereferenceable(1) ptr @"_ZNR4absl18container_internal15CompressedTupleIJZNS_13cord_internal12_GLOBAL__N_18ExternalEmE3$_0EE3getILi0EEERNS0_25internal_compressed_tuple4ElemIS5_XT_EE4typeEv"(ptr noundef nonnull align 1 dereferenceable(1) %this1)
          to label %invoke.cont unwind label %terminate.lpad

invoke.cont:                                      ; preds = %entry
  %base = getelementptr inbounds %"struct.absl::cord_internal::CordRepExternal", ptr %this1, i32 0, i32 1
  %0 = load ptr, ptr %base, align 8
  %length = getelementptr inbounds %"struct.absl::cord_internal::CordRep", ptr %this1, i32 0, i32 0
  %1 = load i64, ptr %length, align 8
  call void @_ZNSt17basic_string_viewIcSt11char_traitsIcEEC2EPKcm(ptr noundef nonnull align 8 dereferenceable(16) %agg.tmp2, ptr noundef %0, i64 noundef %1) #3
  %2 = getelementptr inbounds { i64, ptr }, ptr %agg.tmp2, i32 0, i32 0
  %3 = load i64, ptr %2, align 8
  %4 = getelementptr inbounds { i64, ptr }, ptr %agg.tmp2, i32 0, i32 1
  %5 = load ptr, ptr %4, align 8
  invoke void @"_ZN4absl13cord_internal14InvokeReleaserIZNS0_12_GLOBAL__N_18ExternalEmE3$_0vEEvNS0_5Rank0EOT_St17basic_string_viewIcSt11char_traitsIcEE"(ptr noundef nonnull align 1 dereferenceable(1) %call, i64 %3, ptr %5)
          to label %invoke.cont3 unwind label %terminate.lpad

invoke.cont3:                                     ; preds = %invoke.cont
  ret void

terminate.lpad:                                   ; preds = %invoke.cont, %entry
  %6 = landingpad { ptr, i32 }
          catch ptr null
  %7 = extractvalue { ptr, i32 } %6, 0
  call void @__clang_call_terminate(ptr %7) #18
  unreachable
}

; Function Attrs: mustprogress nounwind uwtable
define internal void @"_ZN4absl13cord_internal19CordRepExternalImplIZNS0_12_GLOBAL__N_18ExternalEmE3$_0E7ReleaseEPNS0_15CordRepExternalE"(ptr noundef %rep) #7 align 2 {
entry:
  %rep.addr = alloca ptr, align 8
  store ptr %rep, ptr %rep.addr, align 8
  %0 = load ptr, ptr %rep.addr, align 8
  %isnull = icmp eq ptr %0, null
  br i1 %isnull, label %delete.end, label %delete.notnull

delete.notnull:                                   ; preds = %entry
  call void @"_ZN4absl13cord_internal19CordRepExternalImplIZNS0_12_GLOBAL__N_18ExternalEmE3$_0ED2Ev"(ptr noundef nonnull align 8 dereferenceable(32) %0) #3
  call void @_ZdlPv(ptr noundef %0) #16
  br label %delete.end

delete.end:                                       ; preds = %delete.notnull, %entry
  ret void
}