; Function Attrs: mustprogress nounwind uwtable
define internal void @"_ZN4absl13cord_internal19CordRepExternalImplIZNS0_12_GLOBAL__N_18ExternalEmE3$_0E7ReleaseEPNS0_15CordRepExternalE"(ptr noundef %rep) #7 align 2 personality ptr @__gxx_personality_v0 {
entry:
  %isnull = icmp eq ptr %rep, null
  br i1 %isnull, label %delete.end, label %delete.notnull

delete.notnull:                                   ; preds = %entry
  tail call void @_ZdlPv(ptr noundef nonnull %rep) #21
  br label %delete.end

delete.end:                                       ; preds = %delete.notnull, %entry
  ret void
}